; Function Attrs: nounwind uwtable
define internal range(i32 0, 2) i32 @test_msg_check_no_protection_restrictive_cb() #0 {
  %1 = tail call fastcc ptr @set_up(ptr noundef nonnull @.str.67)
  %2 = icmp eq ptr %1, null
  br i1 %2, label %13, label %3

3:                                                ; preds = %0
  %4 = getelementptr inbounds nuw i8, ptr %1, i64 8
  store i32 0, ptr %4, align 8, !tbaa !24
  %5 = getelementptr inbounds nuw i8, ptr %1, i64 40
  store ptr @allow_unprotected, ptr %5, align 8, !tbaa !38
  %6 = getelementptr inbounds nuw i8, ptr %1, i64 48
  store i32 0, ptr %6, align 8, !tbaa !39
  %7 = load ptr, ptr @ir_rmprotection, align 8, !tbaa !9
  %8 = tail call ptr @OSSL_CMP_MSG_dup(ptr noundef %7) #7
  %9 = getelementptr inbounds nuw i8, ptr %1, i64 24
  store ptr %8, ptr %9, align 8, !tbaa !27
  %10 = icmp eq ptr %8, null
  br i1 %10, label %.sink.split, label %setup_check_update.exit

setup_check_update.exit:                          ; preds = %3
  %11 = tail call fastcc i32 @execute_msg_check_test(ptr noundef %1)
  %12 = load ptr, ptr %9, align 8, !tbaa !27
  br label %.sink.split

.sink.split:                                      ; preds = %3, %setup_check_update.exit
  %.sink9 = phi ptr [ %12, %setup_check_update.exit ], [ null, %3 ]
  %.02.ph = phi i32 [ %11, %setup_check_update.exit ], [ 0, %3 ]
  tail call void @OSSL_CMP_MSG_free(ptr noundef %.sink9) #7
  %.sink.in = getelementptr inbounds nuw i8, ptr %1, i64 16
  %.sink = load ptr, ptr %.sink.in, align 8, !tbaa !28
  tail call void @OSSL_CMP_CTX_free(ptr noundef %.sink) #7
  tail call void @CRYPTO_free(ptr noundef nonnull %1, ptr noundef nonnull @.str.14, i32 noundef 47) #7
  br label %13

13:                                               ; preds = %.sink.split, %0
  %.02 = phi i32 [ 0, %0 ], [ %.02.ph, %.sink.split ]
  ret i32 %.02
}